target datalayout = "e-m:e-p270:32:32-p271:32:32-p272:64:64-i64:64-i128:128-f80:128-n8:16:32:64-S128"
target triple = "x86_64-pc-linux-gnu"

%struct.PlannerInfo = type { i32, ptr, ptr, i32, ptr, ptr, ptr, ptr, i32, ptr, ptr, ptr, ptr, ptr, ptr, ptr, ptr, i32, ptr, ptr, ptr, ptr, ptr, i8, ptr, ptr, ptr, ptr, ptr, i32, ptr, ptr, ptr, ptr, ptr, ptr, ptr, i32, ptr, ptr, ptr, i32, ptr, ptr, ptr, ptr, ptr, ptr, [8 x ptr], [8 x ptr], ptr, ptr, ptr, ptr, ptr, ptr, ptr, double, double, double, i32, i8, i8, i8, i8, i8, i8, i8, i32, ptr, ptr, i32, i8, i8, i32, ptr, ptr, ptr, ptr, ptr, ptr, i8, ptr }
%struct.RelOptInfo = type { i32, i32, ptr, double, i8, i8, i8, ptr, ptr, ptr, ptr, ptr, ptr, ptr, ptr, ptr, ptr, i32, i32, i32, i16, i16, ptr, ptr, ptr, ptr, ptr, ptr, ptr, ptr, i32, double, double, ptr, ptr, ptr, i32, i32, i32, i32, i8, ptr, ptr, ptr, ptr, ptr, %struct.QualCost, i32, ptr, i8, i8, ptr, ptr, ptr, ptr, i32, ptr, i8, ptr, ptr, ptr, ptr, ptr, ptr }
%struct.QualCost = type { double, double }

; Function Attrs: nounwind uwtable
define dso_local void @rebuild_lateral_attr_needed(ptr noundef %0) #0 {
  %2 = alloca ptr, align 8
  %3 = alloca i32, align 4
  %4 = alloca i32, align 4
  %5 = alloca ptr, align 8
  %6 = alloca ptr, align 8
  store ptr %0, ptr %2, align 8
  call void @llvm.lifetime.start.p0(i64 4, ptr %3) #6
  %7 = load ptr, ptr %2, align 8
  %8 = getelementptr inbounds nuw %struct.PlannerInfo, ptr %7, i32 0, i32 62
  %9 = load i8, ptr %8, align 1, !range !6, !noundef !7
  %10 = trunc i8 %9 to i1
  br i1 %10, label %12, label %11

11:                                               ; preds = %1
  store i32 1, ptr %4, align 4
  br label %57

12:                                               ; preds = %1
  store i32 1, ptr %3, align 4
  br label %13

13:                                               ; preds = %53, %12
  %14 = load i32, ptr %3, align 4
  %15 = load ptr, ptr %2, align 8
  %16 = getelementptr inbounds nuw %struct.PlannerInfo, ptr %15, i32 0, i32 8
  %17 = load i32, ptr %16, align 8
  %18 = icmp ult i32 %14, %17
  br i1 %18, label %19, label %56

19:                                               ; preds = %13
  call void @llvm.lifetime.start.p0(i64 8, ptr %5) #6
  %20 = load ptr, ptr %2, align 8
  %21 = getelementptr inbounds nuw %struct.PlannerInfo, ptr %20, i32 0, i32 7
  %22 = load ptr, ptr %21, align 8
  %23 = load i32, ptr %3, align 4
  %24 = zext i32 %23 to i64
  %25 = getelementptr inbounds nuw ptr, ptr %22, i64 %24
  %26 = load ptr, ptr %25, align 8
  store ptr %26, ptr %5, align 8
  call void @llvm.lifetime.start.p0(i64 8, ptr %6) #6
  %27 = load ptr, ptr %5, align 8
  %28 = icmp eq ptr %27, null
  br i1 %28, label %29, label %30

29:                                               ; preds = %19
  store i32 4, ptr %4, align 4
  br label %50

30:                                               ; preds = %19
  %31 = load ptr, ptr %5, align 8
  %32 = getelementptr inbounds nuw %struct.RelOptInfo, ptr %31, i32 0, i32 1
  %33 = load i32, ptr %32, align 4
  %34 = icmp ne i32 %33, 0
  br i1 %34, label %35, label %36

35:                                               ; preds = %30
  store i32 4, ptr %4, align 4
  br label %50

36:                                               ; preds = %30
  %37 = load ptr, ptr %5, align 8
  %38 = getelementptr inbounds nuw %struct.RelOptInfo, ptr %37, i32 0, i32 26
  %39 = load ptr, ptr %38, align 8
  %40 = icmp eq ptr %39, null
  br i1 %40, label %41, label %42

41:                                               ; preds = %36
  store i32 4, ptr %4, align 4
  br label %50

42:                                               ; preds = %36
  %43 = load i32, ptr %3, align 4
  %44 = call ptr @bms_make_singleton(i32 noundef %43)
  store ptr %44, ptr %6, align 8
  %45 = load ptr, ptr %2, align 8
  %46 = load ptr, ptr %5, align 8
  %47 = getelementptr inbounds nuw %struct.RelOptInfo, ptr %46, i32 0, i32 26
  %48 = load ptr, ptr %47, align 8
  %49 = load ptr, ptr %6, align 8
  call void @add_vars_to_attr_needed(ptr noundef %45, ptr noundef %48, ptr noundef %49)
  store i32 0, ptr %4, align 4
  br label %50

50:                                               ; preds = %42, %41, %35, %29
  call void @llvm.lifetime.end.p0(i64 8, ptr %6) #6
  call void @llvm.lifetime.end.p0(i64 8, ptr %5) #6
  %51 = load i32, ptr %4, align 4
  switch i32 %51, label %60 [
    i32 0, label %52
    i32 4, label %53
  ]

52:                                               ; preds = %50
  br label %53

53:                                               ; preds = %52, %50
  %54 = load i32, ptr %3, align 4
  %55 = add i32 %54, 1
  store i32 %55, ptr %3, align 4
  br label %13, !llvm.loop !19

56:                                               ; preds = %13
  store i32 0, ptr %4, align 4
  br label %57

57:                                               ; preds = %56, %11
  call void @llvm.lifetime.end.p0(i64 4, ptr %3) #6
  %58 = load i32, ptr %4, align 4
  switch i32 %58, label %60 [
    i32 0, label %59
    i32 1, label %59
  ]

59:                                               ; preds = %57, %57
  ret void

60:                                               ; preds = %57, %50
  unreachable
}