; Function Attrs: nounwind uwtable
define dso_local void @rebuild_lateral_attr_needed(ptr noundef %0) local_unnamed_addr #0 {
  %2 = getelementptr inbounds nuw i8, ptr %0, i64 597
  %3 = load i8, ptr %2, align 1, !range !4, !noundef !5
  %4 = trunc nuw i8 %3 to i1
  br i1 %4, label %.preheader, label %.loopexit

.preheader:                                       ; preds = %1
  %5 = getelementptr inbounds nuw i8, ptr %0, i64 64
  %6 = load i32, ptr %5, align 8
  %7 = icmp ugt i32 %6, 1
  br i1 %7, label %.lr.ph, label %.loopexit

.lr.ph:                                           ; preds = %.preheader
  %8 = getelementptr inbounds nuw i8, ptr %0, i64 56
  br label %9

9:                                                ; preds = %.lr.ph, %26
  %10 = phi i32 [ %6, %.lr.ph ], [ %27, %26 ]
  %indvars.iv = phi i64 [ 1, %.lr.ph ], [ %indvars.iv.next, %26 ]
  %11 = load ptr, ptr %8, align 8
  %12 = getelementptr inbounds nuw ptr, ptr %11, i64 %indvars.iv
  %13 = load ptr, ptr %12, align 8
  %14 = icmp eq ptr %13, null
  br i1 %14, label %26, label %15

15:                                               ; preds = %9
  %16 = getelementptr inbounds nuw i8, ptr %13, i64 4
  %17 = load i32, ptr %16, align 4
  %.not = icmp eq i32 %17, 0
  br i1 %.not, label %18, label %26

18:                                               ; preds = %15
  %19 = getelementptr inbounds nuw i8, ptr %13, i64 160
  %20 = load ptr, ptr %19, align 8
  %21 = icmp eq ptr %20, null
  br i1 %21, label %26, label %22

22:                                               ; preds = %18
  %23 = trunc nuw i64 %indvars.iv to i32
  %24 = tail call ptr @bms_make_singleton(i32 noundef %23) #7
  %25 = load ptr, ptr %19, align 8
  tail call void @add_vars_to_attr_needed(ptr noundef nonnull %0, ptr noundef %25, ptr noundef %24)
  %.pre = load i32, ptr %5, align 8
  br label %26

26:                                               ; preds = %18, %15, %9, %22
  %27 = phi i32 [ %10, %18 ], [ %10, %15 ], [ %10, %9 ], [ %.pre, %22 ]
  %indvars.iv.next = add nuw nsw i64 %indvars.iv, 1
  %28 = zext i32 %27 to i64
  %29 = icmp samesign ult i64 %indvars.iv.next, %28
  br i1 %29, label %9, label %.loopexit, !llvm.loop !11

.loopexit:                                        ; preds = %26, %.preheader, %1
  ret void
}